target datalayout = "e-m:e-p270:32:32-p271:32:32-p272:64:64-i64:64-i128:128-f80:128-n8:16:32:64-S128"
target triple = "x86_64-pc-linux-gnu"

%"struct.std::atomic.0" = type { %"struct.std::__atomic_base.1" }
%"struct.std::__atomic_base.1" = type { i32 }
%"class.enki::ICompletable" = type { ptr, i32, %"struct.std::atomic.0", %"struct.std::atomic.0", i32, %"struct.std::atomic.0", ptr }
%"class.enki::Dependency" = type { ptr, ptr, ptr }

; Function Attrs: noinline noreturn nounwind uwtable
define linkonce_odr hidden void @__clang_call_terminate(ptr noundef %0) #13 comdat {
  %2 = call ptr @__cxa_begin_catch(ptr %0) #14
  call void @_ZSt9terminatev() #21
  unreachable
}

; Function Attrs: mustprogress nounwind uwtable
define dso_local void @_ZN4enki10Dependency15ClearDependencyEv(ptr noundef nonnull align 8 dereferenceable(24) %0) #5 align 2 {
  %2 = alloca ptr, align 8
  %3 = alloca ptr, align 8
  %4 = alloca ptr, align 8
  %5 = alloca i32, align 4
  store ptr %0, ptr %2, align 8, !tbaa !139
  %6 = load ptr, ptr %2, align 8
  %7 = getelementptr inbounds nuw %"class.enki::Dependency", ptr %6, i32 0, i32 1
  %8 = load ptr, ptr %7, align 8, !tbaa !187
  %9 = icmp ne ptr %8, null
  br i1 %9, label %10, label %52

10:                                               ; preds = %1
  call void @llvm.lifetime.start.p0(i64 8, ptr %3) #14
  %11 = getelementptr inbounds nuw %"class.enki::Dependency", ptr %6, i32 0, i32 1
  %12 = load ptr, ptr %11, align 8, !tbaa !187
  %13 = getelementptr inbounds nuw %"class.enki::ICompletable", ptr %12, i32 0, i32 6
  %14 = load ptr, ptr %13, align 8, !tbaa !138
  store ptr %14, ptr %3, align 8, !tbaa !139
  %15 = getelementptr inbounds nuw %"class.enki::Dependency", ptr %6, i32 0, i32 0
  %16 = load ptr, ptr %15, align 8, !tbaa !140
  %17 = getelementptr inbounds nuw %"class.enki::ICompletable", ptr %16, i32 0, i32 4
  %18 = load i32, ptr %17, align 4, !tbaa !142
  %19 = add nsw i32 %18, -1
  store i32 %19, ptr %17, align 4, !tbaa !142
  %20 = load ptr, ptr %3, align 8, !tbaa !139
  %21 = icmp eq ptr %6, %20
  br i1 %21, label %22, label %29

22:                                               ; preds = %10
  %23 = load ptr, ptr %3, align 8, !tbaa !139
  %24 = getelementptr inbounds nuw %"class.enki::Dependency", ptr %23, i32 0, i32 2
  %25 = load ptr, ptr %24, align 8, !tbaa !143
  %26 = getelementptr inbounds nuw %"class.enki::Dependency", ptr %6, i32 0, i32 1
  %27 = load ptr, ptr %26, align 8, !tbaa !187
  %28 = getelementptr inbounds nuw %"class.enki::ICompletable", ptr %27, i32 0, i32 6
  store ptr %25, ptr %28, align 8, !tbaa !138
  br label %51

29:                                               ; preds = %10
  br label %30

30:                                               ; preds = %49, %29
  %31 = load ptr, ptr %3, align 8, !tbaa !139
  %32 = icmp ne ptr %31, null
  br i1 %32, label %33, label %50

33:                                               ; preds = %30
  call void @llvm.lifetime.start.p0(i64 8, ptr %4) #14
  %34 = load ptr, ptr %3, align 8, !tbaa !139
  store ptr %34, ptr %4, align 8, !tbaa !139
  %35 = load ptr, ptr %3, align 8, !tbaa !139
  %36 = getelementptr inbounds nuw %"class.enki::Dependency", ptr %35, i32 0, i32 2
  %37 = load ptr, ptr %36, align 8, !tbaa !143
  store ptr %37, ptr %3, align 8, !tbaa !139
  %38 = load ptr, ptr %3, align 8, !tbaa !139
  %39 = icmp eq ptr %6, %38
  br i1 %39, label %40, label %46

40:                                               ; preds = %33
  %41 = load ptr, ptr %3, align 8, !tbaa !139
  %42 = getelementptr inbounds nuw %"class.enki::Dependency", ptr %41, i32 0, i32 2
  %43 = load ptr, ptr %42, align 8, !tbaa !143
  %44 = load ptr, ptr %4, align 8, !tbaa !139
  %45 = getelementptr inbounds nuw %"class.enki::Dependency", ptr %44, i32 0, i32 2
  store ptr %43, ptr %45, align 8, !tbaa !143
  store i32 3, ptr %5, align 4
  br label %47

46:                                               ; preds = %33
  store i32 0, ptr %5, align 4
  br label %47

47:                                               ; preds = %46, %40
  call void @llvm.lifetime.end.p0(i64 8, ptr %4) #14
  %48 = load i32, ptr %5, align 4
  switch i32 %48, label %56 [
    i32 0, label %49
    i32 3, label %50
  ]

49:                                               ; preds = %47
  br label %30, !llvm.loop !191

50:                                               ; preds = %47, %30
  br label %51

51:                                               ; preds = %50, %22
  call void @llvm.lifetime.end.p0(i64 8, ptr %3) #14
  br label %52

52:                                               ; preds = %51, %1
  %53 = getelementptr inbounds nuw %"class.enki::Dependency", ptr %6, i32 0, i32 1
  store ptr null, ptr %53, align 8, !tbaa !187
  %54 = getelementptr inbounds nuw %"class.enki::Dependency", ptr %6, i32 0, i32 1
  store ptr null, ptr %54, align 8, !tbaa !187
  %55 = getelementptr inbounds nuw %"class.enki::Dependency", ptr %6, i32 0, i32 2
  store ptr null, ptr %55, align 8, !tbaa !143
  ret void

56:                                               ; preds = %47
  unreachable
}

; Function Attrs: mustprogress nounwind uwtable
define dso_local void @_ZN4enki10DependencyD2Ev(ptr noundef nonnull align 8 dereferenceable(24) %0) unnamed_addr #5 align 2 personality ptr @__gxx_personality_v0 {
  %2 = alloca ptr, align 8
  store ptr %0, ptr %2, align 8, !tbaa !139
  %3 = load ptr, ptr %2, align 8
  invoke void @_ZN4enki10Dependency15ClearDependencyEv(ptr noundef nonnull align 8 dereferenceable(24) %3)
          to label %4 unwind label %5

4:                                                ; preds = %1
  ret void

5:                                                ; preds = %1
  %6 = landingpad { ptr, i32 }
          catch ptr null
  %7 = extractvalue { ptr, i32 } %6, 0
  call void @__clang_call_terminate(ptr %7) #21
  unreachable
}