; Function Attrs: mustprogress nofree norecurse nosync nounwind memory(readwrite, inaccessiblemem: none) uwtable
define dso_local void @_ZN4enki10DependencyD2Ev(ptr noundef nonnull align 8 captures(address) dereferenceable(24) %0) unnamed_addr #25 align 2 personality ptr @__gxx_personality_v0 {
  %2 = getelementptr inbounds nuw i8, ptr %0, i64 8
  %3 = load ptr, ptr %2, align 8, !tbaa !143
  %.not.i = icmp eq ptr %3, null
  br i1 %.not.i, label %_ZN4enki10Dependency15ClearDependencyEv.exit, label %4

4:                                                ; preds = %1
  %5 = getelementptr inbounds nuw i8, ptr %3, i64 32
  %6 = load ptr, ptr %5, align 8, !tbaa !30
  %7 = load ptr, ptr %0, align 8, !tbaa !35
  %8 = getelementptr inbounds nuw i8, ptr %7, i64 20
  %9 = load i32, ptr %8, align 4, !tbaa !38
  %10 = add nsw i32 %9, -1
  store i32 %10, ptr %8, align 4, !tbaa !38
  %11 = icmp eq ptr %0, %6
  br i1 %11, label %12, label %.preheader.i

12:                                               ; preds = %4
  %13 = getelementptr inbounds nuw i8, ptr %6, i64 16
  %14 = load ptr, ptr %13, align 8, !tbaa !39
  store ptr %14, ptr %5, align 8, !tbaa !30
  br label %_ZN4enki10Dependency15ClearDependencyEv.exit

.preheader.i:                                     ; preds = %4, %15
  %.09.i = phi ptr [ %17, %15 ], [ %6, %4 ]
  %.not13.i = icmp eq ptr %.09.i, null
  br i1 %.not13.i, label %_ZN4enki10Dependency15ClearDependencyEv.exit, label %15

15:                                               ; preds = %.preheader.i
  %16 = getelementptr inbounds nuw i8, ptr %.09.i, i64 16
  %17 = load ptr, ptr %16, align 8, !tbaa !39
  %18 = icmp eq ptr %0, %17
  br i1 %18, label %.thread.i, label %.preheader.i

.thread.i:                                        ; preds = %15
  %19 = getelementptr inbounds nuw i8, ptr %.09.i, i64 16
  %20 = getelementptr inbounds nuw i8, ptr %17, i64 16
  %21 = load ptr, ptr %20, align 8, !tbaa !39
  store ptr %21, ptr %19, align 8, !tbaa !39
  br label %_ZN4enki10Dependency15ClearDependencyEv.exit

_ZN4enki10Dependency15ClearDependencyEv.exit:     ; preds = %.preheader.i, %1, %12, %.thread.i
  tail call void @llvm.memset.p0.i64(ptr noundef nonnull align 8 dereferenceable(16) %2, i8 0, i64 16, i1 false)
  ret void
}